target datalayout = "e-m:e-p270:32:32-p271:32:32-p272:64:64-i64:64-i128:128-f80:128-n8:16:32:64-S128"
target triple = "x86_64-unknown-linux-gnu"

%"class.std::__cxx11::basic_string" = type { %"struct.std::__cxx11::basic_string<char>::_Alloc_hider", i64, %union.anon }
%"struct.std::__cxx11::basic_string<char>::_Alloc_hider" = type { ptr }
%union.anon = type { i64, [8 x i8] }
%struct.tm = type { i32, i32, i32, i32, i32, i32, i32, i32, i32, i64, ptr }
%"struct.facebook::velox::TimestampToStringOptions" = type { i8, i8, i8, i8 }

; Function Attrs: mustprogress nounwind uwtable
define linkonce_odr void @_ZN8facebook5velox24TimestampToStringOptionsC2Ev(ptr noundef nonnull align 1 dereferenceable(4) %this) unnamed_addr #2 comdat align 2 {
entry:
  %this.addr = alloca ptr, align 8
  store ptr %this, ptr %this.addr, align 8
  %this1 = load ptr, ptr %this.addr, align 8
  %precision = getelementptr inbounds %"struct.facebook::velox::TimestampToStringOptions", ptr %this1, i32 0, i32 0
  store i8 9, ptr %precision, align 1
  %zeroPaddingYear = getelementptr inbounds %"struct.facebook::velox::TimestampToStringOptions", ptr %this1, i32 0, i32 1
  store i8 0, ptr %zeroPaddingYear, align 1
  %dateTimeSeparator = getelementptr inbounds %"struct.facebook::velox::TimestampToStringOptions", ptr %this1, i32 0, i32 2
  store i8 84, ptr %dateTimeSeparator, align 1
  %mode = getelementptr inbounds %"struct.facebook::velox::TimestampToStringOptions", ptr %this1, i32 0, i32 3
  store i8 0, ptr %mode, align 1
  ret void
}

; Function Attrs: mustprogress uwtable
define void @_ZNK8facebook5velox8DateType8toStringB5cxx11Ei(ptr noalias sret(%"class.std::__cxx11::basic_string") align 8 %agg.result, ptr noundef nonnull align 8 dereferenceable(17) %this, i32 noundef %days) #0 align 2 {
entry:
  %result.ptr = alloca ptr, align 8
  %this.addr = alloca ptr, align 8
  %days.addr = alloca i32, align 4
  %daySeconds = alloca i64, align 8
  %tmValue = alloca %struct.tm, align 8
  %options = alloca %"struct.facebook::velox::TimestampToStringOptions", align 1
  store ptr %agg.result, ptr %result.ptr, align 8
  store ptr %this, ptr %this.addr, align 8
  store i32 %days, ptr %days.addr, align 4
  %0 = load i32, ptr %days.addr, align 4
  %conv = sext i32 %0 to i64
  %mul = mul nsw i64 %conv, 86400
  store i64 %mul, ptr %daySeconds, align 8
  %1 = load i64, ptr %daySeconds, align 8
  %call = call noundef zeroext i1 @_ZN8facebook5velox9Timestamp10epochToUtcElR2tm(i64 noundef %1, ptr noundef nonnull align 8 dereferenceable(56) %tmValue)
  %lnot = xor i1 %call, true
  br i1 %lnot, label %if.then, label %if.end

if.then:                                          ; preds = %entry
  call void @llvm.trap()
  br label %if.end

if.end:                                           ; preds = %if.then, %entry
  call void @_ZN8facebook5velox24TimestampToStringOptionsC2Ev(ptr noundef nonnull align 1 dereferenceable(4) %options) #1
  %mode = getelementptr inbounds %"struct.facebook::velox::TimestampToStringOptions", ptr %options, i32 0, i32 3
  store i8 1, ptr %mode, align 1
  call void @_ZN8facebook5velox9Timestamp10tmToStringB5cxx11ERK2tmmRKNS0_24TimestampToStringOptionsE(ptr sret(%"class.std::__cxx11::basic_string") align 8 %agg.result, ptr noundef nonnull align 8 dereferenceable(56) %tmValue, i64 noundef 0, ptr noundef nonnull align 1 dereferenceable(4) %options)
  ret void
}