; Function Attrs: mustprogress uwtable
define void @_ZNK8facebook5velox8DateType8toStringB5cxx11Ei(ptr noalias sret(%"class.std::__cxx11::basic_string") align 8 %agg.result, ptr nocapture noundef nonnull readnone align 8 dereferenceable(17) %this, i32 noundef %days) local_unnamed_addr #0 align 2 {
entry:
  %tmValue = alloca %struct.tm, align 8
  %options = alloca %"struct.facebook::velox::TimestampToStringOptions", align 4
  %conv = sext i32 %days to i64
  %mul = mul nsw i64 %conv, 86400
  %call = call noundef zeroext i1 @_ZN8facebook5velox9Timestamp10epochToUtcElR2tm(i64 noundef %mul, ptr noundef nonnull align 8 dereferenceable(56) %tmValue)
  br i1 %call, label %if.end, label %if.then

if.then:                                          ; preds = %entry
  call void @llvm.trap()
  unreachable

if.end:                                           ; preds = %entry
  store <4 x i8> <i8 9, i8 0, i8 84, i8 1>, ptr %options, align 4
  call void @_ZN8facebook5velox9Timestamp10tmToStringB5cxx11ERK2tmmRKNS0_24TimestampToStringOptionsE(ptr sret(%"class.std::__cxx11::basic_string") align 8 %agg.result, ptr noundef nonnull align 8 dereferenceable(56) %tmValue, i64 noundef 0, ptr noundef nonnull align 1 dereferenceable(4) %options)
  ret void
}